; Function Attrs: mustprogress uwtable
define hidden void @_ZN7datalog14bound_relationC2ERNS_21bound_relation_pluginERKNS_18relation_signatureEb(ptr noundef nonnull align 8 dereferenceable(136) %0, ptr noundef nonnull align 8 dereferenceable(128) %1, ptr noundef nonnull align 8 dereferenceable(8) %2, i1 noundef zeroext %3) unnamed_addr #3 align 2 personality ptr @__gxx_personality_v0 {
  %5 = alloca %"struct.datalog::uint_set2", align 8
  call void @llvm.lifetime.start.p0(i64 16, ptr nonnull %5) #24
  call void @llvm.memset.p0.i64(ptr noundef nonnull align 8 dereferenceable(16) %5, i8 0, i64 16, i1 false)
  invoke void @_ZN7datalog15vector_relationINS_9uint_set2ENS_21bound_relation_helperEEC2ERNS_15relation_pluginERKNS_18relation_signatureEbRKS1_(ptr noundef nonnull align 8 dereferenceable(128) %0, ptr noundef nonnull align 8 dereferenceable(36) %1, ptr noundef nonnull align 8 dereferenceable(8) %2, i1 noundef zeroext %3, ptr noundef nonnull align 8 dereferenceable(16) %5)
          to label %6 unwind label %21

6:                                                ; preds = %4
  %7 = getelementptr inbounds nuw i8, ptr %5, i64 8
  %8 = load ptr, ptr %7, align 8, !tbaa !61
  %.not.i.i.i = icmp eq ptr %8, null
  br i1 %.not.i.i.i, label %_ZN6vectorIjLb0EjED2Ev.exit.i, label %9

9:                                                ; preds = %6
  %10 = getelementptr inbounds i8, ptr %8, i64 -8
  invoke void @_ZN6memory10deallocateEPv(ptr noundef nonnull %10)
          to label %_ZN6vectorIjLb0EjED2Ev.exit.i unwind label %11

11:                                               ; preds = %9
  %12 = landingpad { ptr, i32 }
          catch ptr null
  %13 = extractvalue { ptr, i32 } %12, 0
  call void @__clang_call_terminate(ptr %13) #26
  unreachable

_ZN6vectorIjLb0EjED2Ev.exit.i:                    ; preds = %9, %6
  %14 = load ptr, ptr %5, align 8, !tbaa !61
  %.not.i.i1.i = icmp eq ptr %14, null
  br i1 %.not.i.i1.i, label %_ZN7datalog9uint_set2D2Ev.exit, label %15

15:                                               ; preds = %_ZN6vectorIjLb0EjED2Ev.exit.i
  %16 = getelementptr inbounds i8, ptr %14, i64 -8
  invoke void @_ZN6memory10deallocateEPv(ptr noundef nonnull %16)
          to label %_ZN7datalog9uint_set2D2Ev.exit unwind label %17

17:                                               ; preds = %15
  %18 = landingpad { ptr, i32 }
          catch ptr null
  %19 = extractvalue { ptr, i32 } %18, 0
  call void @__clang_call_terminate(ptr %19) #26
  unreachable

_ZN7datalog9uint_set2D2Ev.exit:                   ; preds = %_ZN6vectorIjLb0EjED2Ev.exit.i, %15
  call void @llvm.lifetime.end.p0(i64 16, ptr nonnull %5) #24
  store ptr getelementptr inbounds nuw inrange(-16, 232) (i8, ptr @_ZTVN7datalog14bound_relationE, i64 16), ptr %0, align 8, !tbaa !17
  %20 = getelementptr inbounds nuw i8, ptr %0, i64 128
  store ptr null, ptr %20, align 8, !tbaa !166
  ret void

21:                                               ; preds = %4
  %22 = landingpad { ptr, i32 }
          cleanup
  call void @_ZN7datalog9uint_set2D2Ev(ptr noundef nonnull align 8 dereferenceable(16) %5) #24
  call void @llvm.lifetime.end.p0(i64 16, ptr nonnull %5) #24
  resume { ptr, i32 } %22
}